; ModuleID = 'source-C-CXX/10/637.c'
source_filename = "source-C-CXX/10/637.c"
target datalayout = "e-m:e-p270:32:32-p271:32:32-p272:64:64-i64:64-f80:128-n8:16:32:64-S128"
target triple = "x86_64-pc-linux-gnu"

@__const.main.a = private unnamed_addr constant [12 x i32] [i32 31, i32 28, i32 31, i32 30, i32 31, i32 30, i32 31, i32 31, i32 30, i32 31, i32 30, i32 31], align 16
@.str = private unnamed_addr constant [9 x i8] c"%d %d %d\00", align 1
@.str.1 = private unnamed_addr constant [4 x i8] c"%d\0A\00", align 1

; Function Attrs: nofree nounwind sspstrong uwtable
define dso_local i32 @main() local_unnamed_addr #0 {
  %1 = alloca i32, align 4
  %2 = alloca i32, align 4
  %3 = alloca i32, align 4
  %4 = alloca [12 x i32], align 16
  %5 = bitcast i32* %1 to i8*
  call void @llvm.lifetime.start.p0i8(i64 4, i8* nonnull %5) #5
  %6 = bitcast i32* %2 to i8*
  call void @llvm.lifetime.start.p0i8(i64 4, i8* nonnull %6) #5
  %7 = bitcast i32* %3 to i8*
  call void @llvm.lifetime.start.p0i8(i64 4, i8* nonnull %7) #5
  %8 = bitcast [12 x i32]* %4 to i8*
  call void @llvm.lifetime.start.p0i8(i64 48, i8* nonnull %8) #5
  call void @llvm.memcpy.p0i8.p0i8.i64(i8* noundef nonnull align 16 dereferenceable(48) %8, i8* noundef nonnull align 16 dereferenceable(48) bitcast ([12 x i32]* @__const.main.a to i8*), i64 48, i1 false)
  %9 = call i32 (i8*, ...) @__isoc99_scanf(i8* getelementptr inbounds ([9 x i8], [9 x i8]* @.str, i64 0, i64 0), i32* nonnull %1, i32* nonnull %2, i32* nonnull %3)
  %10 = load i32, i32* %1, align 4, !tbaa !5
  %11 = srem i32 %10, 400
  %12 = icmp eq i32 %11, 0
  br i1 %12, label %19, label %13

13:                                               ; preds = %0
  %14 = and i32 %10, 3
  %15 = icmp ne i32 %14, 0
  %16 = srem i32 %10, 100
  %17 = icmp eq i32 %16, 0
  %18 = or i1 %15, %17
  br i1 %18, label %21, label %19

19:                                               ; preds = %13, %0
  %20 = getelementptr inbounds [12 x i32], [12 x i32]* %4, i64 0, i64 1
  store i32 29, i32* %20, align 4, !tbaa !5
  br label %21

21:                                               ; preds = %19, %13
  %22 = load i32, i32* %2, align 4, !tbaa !5
  %23 = icmp sgt i32 %22, 1
  br i1 %23, label %24, label %120

24:                                               ; preds = %21
  %25 = add nsw i32 %22, -1
  %26 = zext i32 %25 to i64
  %27 = icmp ult i32 %25, 8
  br i1 %27, label %109, label %28

28:                                               ; preds = %24
  %29 = and i64 %26, 4294967288
  %30 = add nsw i64 %29, -8
  %31 = lshr exact i64 %30, 3
  %32 = add nuw nsw i64 %31, 1
  %33 = and i64 %32, 3
  %34 = icmp ult i64 %30, 24
  br i1 %34, label %80, label %35

35:                                               ; preds = %28
  %36 = and i64 %32, 4611686018427387900
  br label %37

37:                                               ; preds = %37, %35
  %38 = phi i64 [ 0, %35 ], [ %77, %37 ]
  %39 = phi <4 x i32> [ zeroinitializer, %35 ], [ %75, %37 ]
  %40 = phi <4 x i32> [ zeroinitializer, %35 ], [ %76, %37 ]
  %41 = phi i64 [ %36, %35 ], [ %78, %37 ]
  %42 = getelementptr inbounds [12 x i32], [12 x i32]* %4, i64 0, i64 %38
  %43 = bitcast i32* %42 to <4 x i32>*
  %44 = load <4 x i32>, <4 x i32>* %43, align 16, !tbaa !5
  %45 = getelementptr inbounds i32, i32* %42, i64 4
  %46 = bitcast i32* %45 to <4 x i32>*
  %47 = load <4 x i32>, <4 x i32>* %46, align 16, !tbaa !5
  %48 = add <4 x i32> %44, %39
  %49 = add <4 x i32> %47, %40
  %50 = or i64 %38, 8
  %51 = getelementptr inbounds [12 x i32], [12 x i32]* %4, i64 0, i64 %50
  %52 = bitcast i32* %51 to <4 x i32>*
  %53 = load <4 x i32>, <4 x i32>* %52, align 16, !tbaa !5
  %54 = getelementptr inbounds i32, i32* %51, i64 4
  %55 = bitcast i32* %54 to <4 x i32>*
  %56 = load <4 x i32>, <4 x i32>* %55, align 16, !tbaa !5
  %57 = add <4 x i32> %53, %48
  %58 = add <4 x i32> %56, %49
  %59 = or i64 %38, 16
  %60 = getelementptr inbounds [12 x i32], [12 x i32]* %4, i64 0, i64 %59
  %61 = bitcast i32* %60 to <4 x i32>*
  %62 = load <4 x i32>, <4 x i32>* %61, align 16, !tbaa !5
  %63 = getelementptr inbounds i32, i32* %60, i64 4
  %64 = bitcast i32* %63 to <4 x i32>*
  %65 = load <4 x i32>, <4 x i32>* %64, align 16, !tbaa !5
  %66 = add <4 x i32> %62, %57
  %67 = add <4 x i32> %65, %58
  %68 = or i64 %38, 24
  %69 = getelementptr inbounds [12 x i32], [12 x i32]* %4, i64 0, i64 %68
  %70 = bitcast i32* %69 to <4 x i32>*
  %71 = load <4 x i32>, <4 x i32>* %70, align 16, !tbaa !5
  %72 = getelementptr inbounds i32, i32* %69, i64 4
  %73 = bitcast i32* %72 to <4 x i32>*
  %74 = load <4 x i32>, <4 x i32>* %73, align 16, !tbaa !5
  %75 = add <4 x i32> %71, %66
  %76 = add <4 x i32> %74, %67
  %77 = add nuw i64 %38, 32
  %78 = add i64 %41, -4
  %79 = icmp eq i64 %78, 0
  br i1 %79, label %80, label %37, !llvm.loop !9

80:                                               ; preds = %37, %28
  %81 = phi <4 x i32> [ undef, %28 ], [ %75, %37 ]
  %82 = phi <4 x i32> [ undef, %28 ], [ %76, %37 ]
  %83 = phi i64 [ 0, %28 ], [ %77, %37 ]
  %84 = phi <4 x i32> [ zeroinitializer, %28 ], [ %75, %37 ]
  %85 = phi <4 x i32> [ zeroinitializer, %28 ], [ %76, %37 ]
  %86 = icmp eq i64 %33, 0
  br i1 %86, label %103, label %87

87:                                               ; preds = %80, %87
  %88 = phi i64 [ %100, %87 ], [ %83, %80 ]
  %89 = phi <4 x i32> [ %98, %87 ], [ %84, %80 ]
  %90 = phi <4 x i32> [ %99, %87 ], [ %85, %80 ]
  %91 = phi i64 [ %101, %87 ], [ %33, %80 ]
  %92 = getelementptr inbounds [12 x i32], [12 x i32]* %4, i64 0, i64 %88
  %93 = bitcast i32* %92 to <4 x i32>*
  %94 = load <4 x i32>, <4 x i32>* %93, align 16, !tbaa !5
  %95 = getelementptr inbounds i32, i32* %92, i64 4
  %96 = bitcast i32* %95 to <4 x i32>*
  %97 = load <4 x i32>, <4 x i32>* %96, align 16, !tbaa !5
  %98 = add <4 x i32> %94, %89
  %99 = add <4 x i32> %97, %90
  %100 = add nuw i64 %88, 8
  %101 = add i64 %91, -1
  %102 = icmp eq i64 %101, 0
  br i1 %102, label %103, label %87, !llvm.loop !12

103:                                              ; preds = %87, %80
  %104 = phi <4 x i32> [ %81, %80 ], [ %98, %87 ]
  %105 = phi <4 x i32> [ %82, %80 ], [ %99, %87 ]
  %106 = add <4 x i32> %105, %104
  %107 = call i32 @llvm.vector.reduce.add.v4i32(<4 x i32> %106)
  %108 = icmp eq i64 %29, %26
  br i1 %108, label %120, label %109

109:                                              ; preds = %24, %103
  %110 = phi i64 [ 0, %24 ], [ %29, %103 ]
  %111 = phi i32 [ 0, %24 ], [ %107, %103 ]
  br label %112

112:                                              ; preds = %109, %112
  %113 = phi i64 [ %118, %112 ], [ %110, %109 ]
  %114 = phi i32 [ %117, %112 ], [ %111, %109 ]
  %115 = getelementptr inbounds [12 x i32], [12 x i32]* %4, i64 0, i64 %113
  %116 = load i32, i32* %115, align 4, !tbaa !5
  %117 = add nsw i32 %116, %114
  %118 = add nuw nsw i64 %113, 1
  %119 = icmp eq i64 %118, %26
  br i1 %119, label %120, label %112, !llvm.loop !14

120:                                              ; preds = %112, %103, %21
  %121 = phi i32 [ 0, %21 ], [ %107, %103 ], [ %117, %112 ]
  %122 = load i32, i32* %3, align 4, !tbaa !5
  %123 = add nsw i32 %122, %121
  %124 = call i32 (i8*, ...) @printf(i8* nonnull dereferenceable(1) getelementptr inbounds ([4 x i8], [4 x i8]* @.str.1, i64 0, i64 0), i32 %123)
  call void @llvm.lifetime.end.p0i8(i64 48, i8* nonnull %8) #5
  call void @llvm.lifetime.end.p0i8(i64 4, i8* nonnull %7) #5
  call void @llvm.lifetime.end.p0i8(i64 4, i8* nonnull %6) #5
  call void @llvm.lifetime.end.p0i8(i64 4, i8* nonnull %5) #5
  ret i32 0
}

; Function Attrs: argmemonly mustprogress nofree nosync nounwind willreturn
declare void @llvm.lifetime.start.p0i8(i64 immarg, i8* nocapture) #1

; Function Attrs: argmemonly mustprogress nofree nounwind willreturn
declare void @llvm.memcpy.p0i8.p0i8.i64(i8* noalias nocapture writeonly, i8* noalias nocapture readonly, i64, i1 immarg) #2

; Function Attrs: nofree nounwind
declare noundef i32 @__isoc99_scanf(i8* nocapture noundef readonly, ...) local_unnamed_addr #3

; Function Attrs: nofree nounwind
declare noundef i32 @printf(i8* nocapture noundef readonly, ...) local_unnamed_addr #3

; Function Attrs: argmemonly mustprogress nofree nosync nounwind willreturn
declare void @llvm.lifetime.end.p0i8(i64 immarg, i8* nocapture) #1

; Function Attrs: nofree nosync nounwind readnone willreturn
declare i32 @llvm.vector.reduce.add.v4i32(<4 x i32>) #4


!llvm.module.flags = !{!0, !1, !2, !3}
!llvm.ident = !{!4}

!0 = !{i32 1, !"wchar_size", i32 4}
!1 = !{i32 7, !"PIC Level", i32 2}
!2 = !{i32 7, !"PIE Level", i32 2}
!3 = !{i32 7, !"uwtable", i32 1}
!4 = !{!"clang version 13.0.0"}
!5 = !{!6, !6, i64 0}
!6 = !{!"int", !7, i64 0}
!7 = !{!"omnipotent char", !8, i64 0}
!8 = !{!"Simple C/C++ TBAA"}
!9 = distinct !{!9, !10, !11}
!10 = !{!"llvm.loop.mustprogress"}
!11 = !{!"llvm.loop.isvectorized", i32 1}
!12 = distinct !{!12, !13}
!13 = !{!"llvm.loop.unroll.disable"}
!14 = distinct !{!14, !10, !15, !11}
!15 = !{!"llvm.loop.unroll.runtime.disable"}
